; ModuleID = '46/3356.c'
source_filename = "46/3356.c"
target datalayout = "e-m:e-p270:32:32-p271:32:32-p272:64:64-i64:64-f80:128-n8:16:32:64-S128"
target triple = "x86_64-pc-linux-gnu"

@.str = private unnamed_addr constant [6 x i8] c"%d %d\00", align 1
@.str.1 = private unnamed_addr constant [3 x i8] c"%d\00", align 1
@.str.2 = private unnamed_addr constant [4 x i8] c"%d\0A\00", align 1

; Function Attrs: noinline nounwind uwtable
define dso_local i32 @main() #0 {
  %1 = alloca i32, align 4
  %2 = alloca [110 x [110 x i32]], align 16
  %3 = alloca i32, align 4
  %4 = alloca i32, align 4
  %5 = alloca i32, align 4
  %6 = alloca i32, align 4
  %7 = alloca i32, align 4
  %8 = alloca i32, align 4
  %9 = alloca i32, align 4
  store i32 0, i32* %1, align 4
  store i32 0, i32* %6, align 4
  store i32 0, i32* %7, align 4
  store i32 0, i32* %8, align 4
  %10 = call i32 (i8*, ...) @__isoc99_scanf(i8* getelementptr inbounds ([6 x i8], [6 x i8]* @.str, i64 0, i64 0), i32* %3, i32* %4)
  %11 = load i32, i32* %3, align 4
  %12 = load i32, i32* %4, align 4
  %13 = mul nsw i32 %11, %12
  store i32 %13, i32* %9, align 4
  store i32 0, i32* %5, align 4
  br label %14

14:                                               ; preds = %35, %0
  %15 = load i32, i32* %5, align 4
  %16 = load i32, i32* %3, align 4
  %17 = icmp slt i32 %15, %16
  br i1 %17, label %18, label %38

18:                                               ; preds = %14
  store i32 0, i32* %6, align 4
  br label %19

19:                                               ; preds = %31, %18
  %20 = load i32, i32* %6, align 4
  %21 = load i32, i32* %4, align 4
  %22 = icmp slt i32 %20, %21
  br i1 %22, label %23, label %34

23:                                               ; preds = %19
  %24 = load i32, i32* %5, align 4
  %25 = sext i32 %24 to i64
  %26 = getelementptr inbounds [110 x [110 x i32]], [110 x [110 x i32]]* %2, i64 0, i64 %25
  %27 = load i32, i32* %6, align 4
  %28 = sext i32 %27 to i64
  %29 = getelementptr inbounds [110 x i32], [110 x i32]* %26, i64 0, i64 %28
  %30 = call i32 (i8*, ...) @__isoc99_scanf(i8* getelementptr inbounds ([3 x i8], [3 x i8]* @.str.1, i64 0, i64 0), i32* %29)
  br label %31

31:                                               ; preds = %23
  %32 = load i32, i32* %6, align 4
  %33 = add nsw i32 %32, 1
  store i32 %33, i32* %6, align 4
  br label %19

34:                                               ; preds = %19
  br label %35

35:                                               ; preds = %34
  %36 = load i32, i32* %5, align 4
  %37 = add nsw i32 %36, 1
  store i32 %37, i32* %5, align 4
  br label %14

38:                                               ; preds = %14
  store i32 0, i32* %6, align 4
  store i32 0, i32* %5, align 4
  br label %39

39:                                               ; preds = %154, %38
  %40 = load i32, i32* %4, align 4
  %41 = icmp sge i32 %40, 1
  br i1 %41, label %42, label %45

42:                                               ; preds = %39
  %43 = load i32, i32* %3, align 4
  %44 = icmp sge i32 %43, 1
  br label %45

45:                                               ; preds = %42, %39
  %46 = phi i1 [ false, %39 ], [ %44, %42 ]
  br i1 %46, label %47, label %161

47:                                               ; preds = %45
  %48 = load i32, i32* %8, align 4
  %49 = load i32, i32* %9, align 4
  %50 = icmp eq i32 %48, %49
  br i1 %50, label %51, label %52

51:                                               ; preds = %47
  br label %161

52:                                               ; preds = %47
  %53 = load i32, i32* %7, align 4
  store i32 %53, i32* %6, align 4
  br label %54

54:                                               ; preds = %69, %52
  %55 = load i32, i32* %6, align 4
  %56 = load i32, i32* %4, align 4
  %57 = icmp slt i32 %55, %56
  br i1 %57, label %58, label %72

58:                                               ; preds = %54
  %59 = load i32, i32* %7, align 4
  %60 = sext i32 %59 to i64
  %61 = getelementptr inbounds [110 x [110 x i32]], [110 x [110 x i32]]* %2, i64 0, i64 %60
  %62 = load i32, i32* %6, align 4
  %63 = sext i32 %62 to i64
  %64 = getelementptr inbounds [110 x i32], [110 x i32]* %61, i64 0, i64 %63
  %65 = load i32, i32* %64, align 4
  %66 = call i32 (i8*, ...) @printf(i8* getelementptr inbounds ([4 x i8], [4 x i8]* @.str.2, i64 0, i64 0), i32 %65)
  %67 = load i32, i32* %8, align 4
  %68 = add nsw i32 %67, 1
  store i32 %68, i32* %8, align 4
  br label %69

69:                                               ; preds = %58
  %70 = load i32, i32* %6, align 4
  %71 = add nsw i32 %70, 1
  store i32 %71, i32* %6, align 4
  br label %54

72:                                               ; preds = %54
  %73 = load i32, i32* %8, align 4
  %74 = load i32, i32* %9, align 4
  %75 = icmp eq i32 %73, %74
  br i1 %75, label %76, label %77

76:                                               ; preds = %72
  br label %161

77:                                               ; preds = %72
  %78 = load i32, i32* %7, align 4
  %79 = add nsw i32 %78, 1
  store i32 %79, i32* %5, align 4
  br label %80

80:                                               ; preds = %97, %77
  %81 = load i32, i32* %5, align 4
  %82 = load i32, i32* %3, align 4
  %83 = sub nsw i32 %82, 1
  %84 = icmp sle i32 %81, %83
  br i1 %84, label %85, label %100

85:                                               ; preds = %80
  %86 = load i32, i32* %5, align 4
  %87 = sext i32 %86 to i64
  %88 = getelementptr inbounds [110 x [110 x i32]], [110 x [110 x i32]]* %2, i64 0, i64 %87
  %89 = load i32, i32* %4, align 4
  %90 = sub nsw i32 %89, 1
  %91 = sext i32 %90 to i64
  %92 = getelementptr inbounds [110 x i32], [110 x i32]* %88, i64 0, i64 %91
  %93 = load i32, i32* %92, align 4
  %94 = call i32 (i8*, ...) @printf(i8* getelementptr inbounds ([4 x i8], [4 x i8]* @.str.2, i64 0, i64 0), i32 %93)
  %95 = load i32, i32* %8, align 4
  %96 = add nsw i32 %95, 1
  store i32 %96, i32* %8, align 4
  br label %97

97:                                               ; preds = %85
  %98 = load i32, i32* %5, align 4
  %99 = add nsw i32 %98, 1
  store i32 %99, i32* %5, align 4
  br label %80

100:                                              ; preds = %80
  %101 = load i32, i32* %8, align 4
  %102 = load i32, i32* %9, align 4
  %103 = icmp eq i32 %101, %102
  br i1 %103, label %104, label %105

104:                                              ; preds = %100
  br label %161

105:                                              ; preds = %100
  %106 = load i32, i32* %4, align 4
  %107 = sub nsw i32 %106, 2
  store i32 %107, i32* %6, align 4
  br label %108

108:                                              ; preds = %124, %105
  %109 = load i32, i32* %6, align 4
  %110 = load i32, i32* %7, align 4
  %111 = icmp sge i32 %109, %110
  br i1 %111, label %112, label %127

112:                                              ; preds = %108
  %113 = load i32, i32* %3, align 4
  %114 = sub nsw i32 %113, 1
  %115 = sext i32 %114 to i64
  %116 = getelementptr inbounds [110 x [110 x i32]], [110 x [110 x i32]]* %2, i64 0, i64 %115
  %117 = load i32, i32* %6, align 4
  %118 = sext i32 %117 to i64
  %119 = getelementptr inbounds [110 x i32], [110 x i32]* %116, i64 0, i64 %118
  %120 = load i32, i32* %119, align 4
  %121 = call i32 (i8*, ...) @printf(i8* getelementptr inbounds ([4 x i8], [4 x i8]* @.str.2, i64 0, i64 0), i32 %120)
  %122 = load i32, i32* %8, align 4
  %123 = add nsw i32 %122, 1
  store i32 %123, i32* %8, align 4
  br label %124

124:                                              ; preds = %112
  %125 = load i32, i32* %6, align 4
  %126 = add nsw i32 %125, -1
  store i32 %126, i32* %6, align 4
  br label %108

127:                                              ; preds = %108
  %128 = load i32, i32* %8, align 4
  %129 = load i32, i32* %9, align 4
  %130 = icmp eq i32 %128, %129
  br i1 %130, label %131, label %132

131:                                              ; preds = %127
  br label %161

132:                                              ; preds = %127
  %133 = load i32, i32* %3, align 4
  %134 = sub nsw i32 %133, 2
  store i32 %134, i32* %5, align 4
  br label %135

135:                                              ; preds = %151, %132
  %136 = load i32, i32* %5, align 4
  %137 = load i32, i32* %7, align 4
  %138 = add nsw i32 %137, 1
  %139 = icmp sge i32 %136, %138
  br i1 %139, label %140, label %154

140:                                              ; preds = %135
  %141 = load i32, i32* %5, align 4
  %142 = sext i32 %141 to i64
  %143 = getelementptr inbounds [110 x [110 x i32]], [110 x [110 x i32]]* %2, i64 0, i64 %142
  %144 = load i32, i32* %7, align 4
  %145 = sext i32 %144 to i64
  %146 = getelementptr inbounds [110 x i32], [110 x i32]* %143, i64 0, i64 %145
  %147 = load i32, i32* %146, align 4
  %148 = call i32 (i8*, ...) @printf(i8* getelementptr inbounds ([4 x i8], [4 x i8]* @.str.2, i64 0, i64 0), i32 %147)
  %149 = load i32, i32* %8, align 4
  %150 = add nsw i32 %149, 1
  store i32 %150, i32* %8, align 4
  br label %151

151:                                              ; preds = %140
  %152 = load i32, i32* %5, align 4
  %153 = add nsw i32 %152, -1
  store i32 %153, i32* %5, align 4
  br label %135

154:                                              ; preds = %135
  %155 = load i32, i32* %3, align 4
  %156 = sub nsw i32 %155, 1
  store i32 %156, i32* %3, align 4
  %157 = load i32, i32* %4, align 4
  %158 = sub nsw i32 %157, 1
  store i32 %158, i32* %4, align 4
  %159 = load i32, i32* %7, align 4
  %160 = add nsw i32 %159, 1
  store i32 %160, i32* %7, align 4
  br label %39

161:                                              ; preds = %131, %104, %76, %51, %45
  ret i32 0
}

declare dso_local i32 @__isoc99_scanf(i8*, ...) #1

declare dso_local i32 @printf(i8*, ...) #1


!llvm.module.flags = !{!0}
!llvm.ident = !{!1}

!0 = !{i32 1, !"wchar_size", i32 4}
!1 = !{!"clang version 10.0.0-4ubuntu1 "}
